; ModuleID = '28/1164.c'
source_filename = "28/1164.c"
target datalayout = "e-m:e-p270:32:32-p271:32:32-p272:64:64-i64:64-f80:128-n8:16:32:64-S128"
target triple = "x86_64-pc-linux-gnu"

@.str = private unnamed_addr constant [4 x i8] c"%d,\00", align 1
@.str.1 = private unnamed_addr constant [3 x i8] c"%d\00", align 1

; Function Attrs: noinline nounwind uwtable
define dso_local void @main() #0 {
  %1 = alloca [5000 x i8], align 16
  %2 = alloca i32, align 4
  %3 = alloca i32, align 4
  %4 = alloca i32, align 4
  %5 = alloca i32, align 4
  %6 = alloca i32, align 4
  %7 = getelementptr inbounds [5000 x i8], [5000 x i8]* %1, i64 0, i64 0
  %8 = call i32 (i8*, ...) bitcast (i32 (...)* @gets to i32 (i8*, ...)*)(i8* %7)
  %9 = getelementptr inbounds [5000 x i8], [5000 x i8]* %1, i64 0, i64 0
  %10 = call i64 @strlen(i8* %9) #3
  %11 = trunc i64 %10 to i32
  store i32 %11, i32* %3, align 4
  %12 = load i32, i32* %3, align 4
  %13 = sub nsw i32 %12, 1
  store i32 %13, i32* %5, align 4
  br label %14

14:                                               ; preds = %22, %0
  %15 = load i32, i32* %5, align 4
  %16 = sext i32 %15 to i64
  %17 = getelementptr inbounds [5000 x i8], [5000 x i8]* %1, i64 0, i64 %16
  %18 = load i8, i8* %17, align 1
  %19 = sext i8 %18 to i32
  %20 = icmp eq i32 %19, 32
  br i1 %20, label %21, label %25

21:                                               ; preds = %14
  br label %22

22:                                               ; preds = %21
  %23 = load i32, i32* %5, align 4
  %24 = add nsw i32 %23, -1
  store i32 %24, i32* %5, align 4
  br label %14

25:                                               ; preds = %14
  %26 = load i32, i32* %5, align 4
  store i32 %26, i32* %6, align 4
  br label %27

27:                                               ; preds = %40, %25
  %28 = load i32, i32* %6, align 4
  %29 = sext i32 %28 to i64
  %30 = getelementptr inbounds [5000 x i8], [5000 x i8]* %1, i64 0, i64 %29
  %31 = load i8, i8* %30, align 1
  %32 = sext i8 %31 to i32
  %33 = icmp ne i32 %32, 32
  br i1 %33, label %34, label %37

34:                                               ; preds = %27
  %35 = load i32, i32* %6, align 4
  %36 = icmp sgt i32 %35, 0
  br label %37

37:                                               ; preds = %34, %27
  %38 = phi i1 [ false, %27 ], [ %36, %34 ]
  br i1 %38, label %39, label %43

39:                                               ; preds = %37
  br label %40

40:                                               ; preds = %39
  %41 = load i32, i32* %6, align 4
  %42 = add nsw i32 %41, -1
  store i32 %42, i32* %6, align 4
  br label %27

43:                                               ; preds = %37
  %44 = load i32, i32* %6, align 4
  %45 = icmp sgt i32 %44, 0
  br i1 %45, label %46, label %90

46:                                               ; preds = %43
  store i32 0, i32* %4, align 4
  store i32 0, i32* %2, align 4
  br label %47

47:                                               ; preds = %84, %46
  %48 = load i32, i32* %4, align 4
  %49 = load i32, i32* %6, align 4
  %50 = icmp slt i32 %48, %49
  br i1 %50, label %51, label %85

51:                                               ; preds = %47
  br label %52

52:                                               ; preds = %60, %51
  %53 = load i32, i32* %4, align 4
  %54 = sext i32 %53 to i64
  %55 = getelementptr inbounds [5000 x i8], [5000 x i8]* %1, i64 0, i64 %54
  %56 = load i8, i8* %55, align 1
  %57 = sext i8 %56 to i32
  %58 = icmp eq i32 %57, 32
  br i1 %58, label %59, label %63

59:                                               ; preds = %52
  br label %60

60:                                               ; preds = %59
  %61 = load i32, i32* %4, align 4
  %62 = add nsw i32 %61, 1
  store i32 %62, i32* %4, align 4
  br label %52

63:                                               ; preds = %52
  %64 = load i32, i32* %4, align 4
  %65 = load i32, i32* %6, align 4
  %66 = icmp slt i32 %64, %65
  br i1 %66, label %67, label %84

67:                                               ; preds = %63
  br label %68

68:                                               ; preds = %78, %67
  %69 = load i32, i32* %4, align 4
  %70 = sext i32 %69 to i64
  %71 = getelementptr inbounds [5000 x i8], [5000 x i8]* %1, i64 0, i64 %70
  %72 = load i8, i8* %71, align 1
  %73 = sext i8 %72 to i32
  %74 = icmp ne i32 %73, 32
  br i1 %74, label %75, label %81

75:                                               ; preds = %68
  %76 = load i32, i32* %2, align 4
  %77 = add nsw i32 %76, 1
  store i32 %77, i32* %2, align 4
  br label %78

78:                                               ; preds = %75
  %79 = load i32, i32* %4, align 4
  %80 = add nsw i32 %79, 1
  store i32 %80, i32* %4, align 4
  br label %68

81:                                               ; preds = %68
  %82 = load i32, i32* %2, align 4
  %83 = call i32 (i8*, ...) @printf(i8* getelementptr inbounds ([4 x i8], [4 x i8]* @.str, i64 0, i64 0), i32 %82)
  store i32 0, i32* %2, align 4
  br label %84

84:                                               ; preds = %81, %63
  br label %47

85:                                               ; preds = %47
  %86 = load i32, i32* %5, align 4
  %87 = load i32, i32* %6, align 4
  %88 = sub nsw i32 %86, %87
  %89 = call i32 (i8*, ...) @printf(i8* getelementptr inbounds ([3 x i8], [3 x i8]* @.str.1, i64 0, i64 0), i32 %88)
  br label %96

90:                                               ; preds = %43
  %91 = load i32, i32* %5, align 4
  %92 = load i32, i32* %6, align 4
  %93 = sub nsw i32 %91, %92
  %94 = add nsw i32 %93, 1
  %95 = call i32 (i8*, ...) @printf(i8* getelementptr inbounds ([3 x i8], [3 x i8]* @.str.1, i64 0, i64 0), i32 %94)
  br label %96

96:                                               ; preds = %90, %85
  ret void
}

declare dso_local i32 @gets(...) #1

; Function Attrs: nounwind readonly
declare dso_local i64 @strlen(i8*) #2

declare dso_local i32 @printf(i8*, ...) #1


!llvm.module.flags = !{!0}
!llvm.ident = !{!1}

!0 = !{i32 1, !"wchar_size", i32 4}
!1 = !{!"clang version 10.0.0-4ubuntu1 "}
